(lp1
(V2015-01-01
V58
tp2
a(V2015-01-02
V69
tp3
a(V2015-01-03
V197
tp4
a(V2015-01-04
V224
tp5
a(V2015-01-05
V139
tp6
a(V2015-01-06
V51
tp7
a(V2015-01-07
V84
tp8
a(V2015-01-08
V163
tp9
a(V2015-01-09
V98
tp10
a(V2015-01-10
V195
tp11
a(V2015-01-11
V53
tp12
a(V2015-01-12
V153
tp13
a(V2015-01-13
V206
tp14
a(V2015-01-14
V264
tp15
a(V2015-01-15
V378
tp16
a(V2015-01-16
V146
tp17
a(V2015-01-17
V81
tp18
a(V2015-01-18
V92
tp19
a(V2015-01-19
V62
tp20
a(V2015-01-20
V111
tp21
a(V2015-01-21
V31
tp22
a(V2015-01-22
V128
tp23
a(V2015-01-23
V256
tp24
a(V2015-01-24
V126
tp25
a(V2015-01-25
V178
tp26
a(V2015-01-26
V134
tp27
a(V2015-01-27
V28
tp28
a(V2015-01-28
V52
tp29
a(V2015-01-29
V85
tp30
a(V2015-01-30
V32
tp31
a(V2015-01-31
V42
tp32
a(V2015-02-01
V102
tp33
a(V2015-02-02
V185
tp34
a(V2015-02-03
V153
tp35
a(V2015-02-04
V36
tp36
a(V2015-02-05
V39
tp37
a(V2015-02-06
V88
tp38
a(V2015-02-07
V37
tp39
a(V2015-02-08
V36
tp40
a(V2015-02-09
V142
tp41
a(V2015-02-10
V161
tp42
a(V2015-02-11
V58
tp43
a(V2015-02-12
V45
tp44
a(V2015-02-13
V158
tp45
a(V2015-02-14
V286
tp46
a(V2015-02-15
V334
tp47
a(V2015-02-16
V159
tp48
a(V2015-02-17
V41
tp49
a(V2015-02-18
V64
tp50
a(V2015-02-19
V268
tp51
a(V2015-02-20
V183
tp52
a(V2015-02-21
V202
tp53
a(V2015-02-22
V163
tp54
a(V2015-02-23
V82
tp55
a(V2015-02-24
V203
tp56
a(V2015-02-25
V103
tp57
a(V2015-02-26
V39
tp58
a(V2015-02-27
V37
tp59
a(V2015-02-28
V162
tp60
a(V2015-03-01
V70
tp61
a(V2015-03-02
V73
tp62
a(V2015-03-03
V48
tp63
a(V2015-03-04
V41
tp64
a(V2015-03-05
V144
tp65
a(V2015-03-06
V245
tp66
a(V2015-03-07
V281
tp67
a(V2015-03-08
V169
tp68
a(V2015-03-09
V40
tp69
a(V2015-03-10
V45
tp70
a(V2015-03-11
V52
tp71
a(V2015-03-12
V83
tp72
a(V2015-03-13
V86
tp73
a(V2015-03-14
V127
tp74
a(V2015-03-15
V135
tp75
a(V2015-03-16
V257
tp76
a(V2015-03-17
V233
tp77
a(V2015-03-18
V69
tp78
a(V2015-03-19
V127
tp79
a(V2015-03-20
V124
tp80
a(V2015-03-21
V77
tp81
a(V2015-03-22
V77
tp82
a(V2015-03-23
V67
tp83
a(V2015-03-24
V102
tp84
a(V2015-03-25
V161
tp85
a(V2015-03-26
V138
tp86
a(V2015-03-27
V138
tp87
a(V2015-03-28
V163
tp88
a(V2015-03-29
V166
tp89
a(V2015-03-30
V197
tp90
a(V2015-03-31
V202
tp91
a(V2015-04-01
V80
tp92
a(V2015-04-02
V50
tp93
a(V2015-04-03
V62
tp94
a(V2015-04-04
V84
tp95
a(V2015-04-05
V74
tp96
a(V2015-04-06
V38
tp97
a(V2015-04-07
V45
tp98
a(V2015-04-08
V126
tp99
a(V2015-04-09
V212
tp100
a(V2015-04-10
V200
tp101
a(V2015-04-11
V188
tp102
a(V2015-04-12
V44
tp103
a(V2015-04-13
V67
tp104
a(V2015-04-14
V74
tp105
a(V2015-04-15
V168
tp106
a(V2015-04-16
V91
tp107
a(V2015-04-17
V112
tp108
a(V2015-04-18
V182
tp109
a(V2015-04-19
V91
tp110
a(V2015-04-20
V90
tp111
a(V2015-04-21
V90
tp112
a(V2015-04-22
V84
tp113
a(V2015-04-23
V79
tp114
a(V2015-04-24
V103
tp115
a(V2015-04-25
V115
tp116
a(V2015-04-26
V161
tp117
a(V2015-04-27
V114
tp118
a(V2015-04-28
V78
tp119
a(V2015-04-29
V150
tp120
a(V2015-04-30
V149
tp121
a(V2015-05-01
V165
tp122
a(V2015-05-02
V88
tp123
a(V2015-05-03
V72
tp124
a(V2015-05-04
V66
tp125
a(V2015-05-05
V72
tp126
a(V2015-05-06
V60
tp127
a(V2015-05-07
V89
tp128
a(V2015-05-08
V83
tp129
a(V2015-05-09
V55
tp130
a(V2015-05-10
V49
tp131
a(V2015-05-11
V42
tp132
a(V2015-05-12
V54
tp133
a(V2015-05-13
V98
tp134
a(V2015-05-14
V57
tp135
a(V2015-05-15
V67
tp136
a(V2015-05-16
V116
tp137
a(V2015-05-17
V166
tp138
a(V2015-05-18
V75
tp139
a(V2015-05-19
V49
tp140
a(V2015-05-20
V63
tp141
a(V2015-05-21
V91
tp142
a(V2015-05-22
V137
tp143
a(V2015-05-23
V179
tp144
a(V2015-05-24
V178
tp145
a(V2015-05-25
V203
tp146
a(V2015-05-26
V191
tp147
a(V2015-05-27
V160
tp148
a(V2015-05-28
V151
tp149
a(V2015-05-29
V104
tp150
a(V2015-05-30
V136
tp151
a(V2015-05-31
V153
tp152
a(V2015-06-01
V159
tp153
a(V2015-06-02
V103
tp154
a(V2015-06-03
V75
tp155
a(V2015-06-04
V70
tp156
a(V2015-06-05
V68
tp157
a(V2015-06-06
V79
tp158
a(V2015-06-07
V43
tp159
a(V2015-06-08
V69
tp160
a(V2015-06-09
V134
tp161
a(V2015-06-10
V100
tp162
a(V2015-06-11
V48
tp163
a(V2015-06-12
V44
tp164
a(V2015-06-13
V65
tp165
a(V2015-06-14
V98
tp166
a(V2015-06-15
V166
tp167
a(V2015-06-16
V177
tp168
a(V2015-06-17
V126
tp169
a(V2015-06-18
V53
tp170
a(V2015-06-19
V35
tp171
a(V2015-06-20
V103
tp172
a(V2015-06-21
V137
tp173
a(V2015-06-22
V163
tp174
a(V2015-06-23
V231
tp175
a(V2015-06-24
V159
tp176
a(V2015-06-25
V164
tp177
a(V2015-06-26
V139
tp178
a(V2015-06-27
V120
tp179
a(V2015-06-28
V197
tp180
a(V2015-06-29
V154
tp181
a(V2015-06-30
V52
tp182
a(V2015-07-01
V41
tp183
a(V2015-07-02
V46
tp184
a(V2015-07-03
V116
tp185
a(V2015-07-04
V92
tp186
a(V2015-07-05
V160
tp187
a(V2015-07-06
V156
tp188
a(V2015-07-07
V160
tp189
a(V2015-07-08
V175
tp190
a(V2015-07-09
V172
tp191
a(V2015-07-10
V145
tp192
a(V2015-07-11
V181
tp193
a(V2015-07-12
V200
tp194
a(V2015-07-13
V176
tp195
a(V2015-07-14
V147
tp196
a(V2015-07-15
V85
tp197
a(V2015-07-16
V54
tp198
a(V2015-07-17
V50
tp199
a(V2015-07-18
V78
tp200
a(V2015-07-19
V89
tp201
a(V2015-07-20
V118
tp202
a(V2015-07-21
V176
tp203
a(V2015-07-22
V110
tp204
a(V2015-07-23
V70
tp205
a(V2015-07-24
V138
tp206
a(V2015-07-25
V158
tp207
a(V2015-07-26
V151
tp208
a(V2015-07-27
V130
tp209
a(V2015-07-28
V109
tp210
a(V2015-07-29
V138
tp211
a(V2015-07-30
V75
tp212
a(V2015-07-31
V85
tp213
a(V2015-08-01
V90
tp214
a(V2015-08-02
V102
tp215
a(V2015-08-03
V82
tp216
a(V2015-08-04
V110
tp217
a(V2015-08-05
V127
tp218
a(V2015-08-06
V119
tp219
a(V2015-08-07
V119
tp220
a(V2015-08-08
V110
tp221
a(V2015-08-09
V152
tp222
a(V2015-08-10
V112
tp223
a(V2015-08-11
V175
tp224
a(V2015-08-12
V161
tp225
a(V2015-08-13
V202
tp226
a(V2015-08-14
V119
tp227
a(V2015-08-15
V80
tp228
a(V2015-08-16
V201
tp229
a(V2015-08-17
V145
tp230
a(V2015-08-18
V90
tp231
a(V2015-08-19
V97
tp232
a(V2015-08-20
V100
tp233
a(V2015-08-21
V94
tp234
a(V2015-08-22
V56
tp235
a(V2015-08-23
V53
tp236
a(V2015-08-24
V55
tp237
a(V2015-08-25
V50
tp238
a(V2015-08-26
V61
tp239
a(V2015-08-27
V60
tp240
a(V2015-08-28
V70
tp241
a(V2015-08-29
V118
tp242
a(V2015-08-30
V74
tp243
a(V2015-08-31
V37
tp244
a(V2015-09-01
V34
tp245
a(V2015-09-02
V44
tp246
a(V2015-09-03
V74
tp247
a(V2015-09-04
V64
tp248
a(V2015-09-05
V44
tp249
a(V2015-09-06
V63
tp250
a(V2015-09-07
V84
tp251
a(V2015-09-08
V104
tp252
a(V2015-09-09
V50
tp253
a(V2015-09-10
V37
tp254
a(V2015-09-11
V35
tp255
a(V2015-09-12
V34
tp256
a(V2015-09-13
V57
tp257
a(V2015-09-14
V89
tp258
a(V2015-09-15
V140
tp259
a(V2015-09-16
V169
tp260
a(V2015-09-17
V201
tp261
a(V2015-09-18
V102
tp262
a(V2015-09-19
V69
tp263
a(V2015-09-20
V114
tp264
a(V2015-09-21
V133
tp265
a(V2015-09-22
V179
tp266
a(V2015-09-23
V57
tp267
a(V2015-09-24
V124
tp268
a(V2015-09-25
V49
tp269
a(V2015-09-26
V74
tp270
a(V2015-09-27
V73
tp271
a(V2015-09-28
V68
tp272
a(V2015-09-29
V62
tp273
a(V2015-09-30
V48
tp274
a(V2015-10-01
V33
tp275
a(V2015-10-02
V59
tp276
a(V2015-10-03
V62
tp277
a(V2015-10-04
V149
tp278
a(V2015-10-05
V272
tp279
a(V2015-10-06
V343
tp280
a(V2015-10-07
V310
tp281
a(V2015-10-08
V35
tp282
a(V2015-10-09
V39
tp283
a(V2015-10-10
V27
tp284
a(V2015-10-11
V37
tp285
a(V2015-10-12
V60
tp286
a(V2015-10-13
V84
tp287
a(V2015-10-14
V135
tp288
a(V2015-10-15
V143
tp289
a(V2015-10-16
V253
tp290
a(V2015-10-17
V344
tp291
a(V2015-10-18
V64
tp292
a(V2015-10-19
V78
tp293
a(V2015-10-20
V99
tp294
a(V2015-10-21
V70
tp295
a(V2015-10-22
V54
tp296
a(V2015-10-23
V74
tp297
a(V2015-10-24
V75
tp298
a(V2015-10-25
V74
tp299
a(V2015-10-26
V63
tp300
a(V2015-10-27
V48
tp301
a(V2015-10-28
V30
tp302
a(V2015-10-29
V30
tp303
a(V2015-10-30
V58
tp304
a(V2015-10-31
V73
tp305
a(V2015-11-01
V98
tp306
a(V2015-11-02
V102
tp307
a(V2015-11-03
V199
tp308
a(V2015-11-04
V260
tp309
a(V2015-11-05
V144
tp310
a(V2015-11-06
V37
tp311
a(V2015-11-07
V37
tp312
a(V2015-11-08
V82
tp313
a(V2015-11-09
V163
tp314
a(V2015-11-10
V175
tp315
a(V2015-11-11
V137
tp316
a(V2015-11-12
V205
tp317
a(V2015-11-13
V258
tp318
a(V2015-11-14
V324
tp319
a(V2015-11-15
V246
tp320
a(V2015-11-16
V79
tp321
a(V2015-11-17
V82
tp322
a(V2015-11-18
V92
tp323
a(V2015-11-19
V102
tp324
a(V2015-11-20
V88
tp325
a(V2015-11-21
V60
tp326
a(V2015-11-22
V69
tp327
a(V2015-11-23
V39
tp328
a(V2015-11-24
V65
tp329
a(V2015-11-25
V69
tp330
a(V2015-11-26
V55
tp331
a(V2015-11-27
V264
tp332
a(V2015-11-28
V308
tp333
a(V2015-11-29
V302
tp334
a(V2015-11-30
V450
tp335
a(V2015-12-01
V476
tp336
a(V2015-12-02
V24
tp337
a(V2015-12-03
V33
tp338
a(V2015-12-04
V54
tp339
a(V2015-12-05
V77
tp340
a(V2015-12-06
V175
tp341
a(V2015-12-07
V230
tp342
a(V2015-12-08
V295
tp343
a(V2015-12-09
V294
tp344
a(V2015-12-10
V127
tp345
a(V2015-12-11
V75
tp346
a(V2015-12-12
V172
tp347
a(V2015-12-13
V229
tp348
a(V2015-12-14
V207
tp349
a(V2015-12-15
V28
tp350
a(V2015-12-16
V23
tp351
a(V2015-12-17
V84
tp352
a(V2015-12-18
V80
tp353
a(V2015-12-19
V168
tp354
a(V2015-12-20
V249
tp355
a(V2015-12-21
V280
tp356
a(V2015-12-22
V347
tp357
a(V2015-12-23
V305
tp358
a(V2015-12-24
V209
tp359
a(V2015-12-25
V485
tp360
a(V2015-12-26
V315
tp361
a(V2015-12-27
V75
tp362
a(V2015-12-28
V149
tp363
a(V2015-12-29
V329
tp364
a(V2015-12-30
V104
tp365
a(V2015-12-31
V90
tp366
a.