(lp1
(V2017-01-01
V470
tp2
a(V2017-01-02
V248
tp3
a(V2017-01-03
V348
tp4
a(V2017-01-04
V389
tp5
a(V2017-01-05
V270
tp6
a(V2017-01-06
V248
tp7
a(V2017-01-07
V216
tp8
a(V2017-01-08
V54
tp9
a(V2017-01-09
V62
tp10
a(V2017-01-10
V45
tp11
a(V2017-01-11
V94
tp12
a(V2017-01-12
V62
tp13
a(V2017-01-13
V34
tp14
a(V2017-01-14
V57
tp15
a(V2017-01-15
V73
tp16
a(V2017-01-16
V123
tp17
a(V2017-01-17
V178
tp18
a(V2017-01-18
V64
tp19
a(V2017-01-19
V69
tp20
a(V2017-01-20
V45
tp21
a(V2017-01-21
V46
tp22
a(V2017-01-22
V53
tp23
a(V2017-01-23
V62
tp24
a(V2017-01-24
V118
tp25
a(V2017-01-25
V228
tp26
a(V2017-01-26
V202
tp27
a(V2017-01-27
V104
tp28
a(V2017-01-28
V395
tp29
a(V2017-01-29
V56
tp30
a(V2017-01-30
V43
tp31
a(V2017-01-31
V102
tp32
a(V2017-02-01
V55
tp33
a(V2017-02-02
V108
tp34
a(V2017-02-03
V216
tp35
a(V2017-02-04
V295
tp36
a(V2017-02-05
V43
tp37
a(V2017-02-06
V38
tp38
a(V2017-02-07
V107
tp39
a(V2017-02-08
V42
tp40
a(V2017-02-09
V41
tp41
a(V2017-02-10
V43
tp42
a(V2017-02-11
V73
tp43
a(V2017-02-12
V140
tp44
a(V2017-02-13
V113
tp45
a(V2017-02-14
V233
tp46
a(V2017-02-15
V282
tp47
a(V2017-02-16
V129
tp48
a(V2017-02-17
V49
tp49
a(V2017-02-18
V117
tp50
a(V2017-02-19
V124
tp51
a(V2017-02-20
V37
tp52
a(V2017-02-21
V83
tp53
a(V2017-02-22
V100
tp54
a(V2017-02-23
V43
tp55
a(V2017-02-24
V58
tp56
a(V2017-02-25
V43
tp57
a(V2017-02-26
V68
tp58
a(V2017-02-27
V99
tp59
a(V2017-02-28
V43
tp60
a(V2017-03-01
V47
tp61
a(V2017-03-02
V68
tp62
a(V2017-03-03
V109
tp63
a(V2017-03-04
V115
tp64
a(V2017-03-05
V42
tp65
a(V2017-03-06
V45
tp66
a(V2017-03-07
V40
tp67
a(V2017-03-08
V45
tp68
a(V2017-03-09
V49
tp69
a(V2017-03-10
V80
tp70
a(V2017-03-11
V66
tp71
a(V2017-03-12
V44
tp72
a(V2017-03-13
V44
tp73
a(V2017-03-14
V54
tp74
a(V2017-03-15
V88
tp75
a(V2017-03-16
V148
tp76
a(V2017-03-17
V163
tp77
a(V2017-03-18
V195
tp78
a(V2017-03-19
V272
tp79
a(V2017-03-20
V180
tp80
a(V2017-03-21
V115
tp81
a(V2017-03-22
V179
tp82
a(V2017-03-23
V159
tp83
a(V2017-03-24
V82
tp84
a(V2017-03-25
V49
tp85
a(V2017-03-26
V45
tp86
a(V2017-03-27
V45
tp87
a(V2017-03-28
V82
tp88
a(V2017-03-29
V148
tp89
a(V2017-03-30
V114
tp90
a(V2017-03-31
V48
tp91
a(V2017-04-01
V69
tp92
a(V2017-04-02
V93
tp93
a(V2017-04-03
V165
tp94
a(V2017-04-04
V163
tp95
a(V2017-04-05
V83
tp96
a(V2017-04-06
V129
tp97
a(V2017-04-07
V102
tp98
a(V2017-04-08
V104
tp99
a(V2017-04-09
V87
tp100
a(V2017-04-10
V89
tp101
a(V2017-04-11
V59
tp102
a(V2017-04-12
V71
tp103
a(V2017-04-13
V92
tp104
a(V2017-04-14
V93
tp105
a(V2017-04-15
V71
tp106
a(V2017-04-16
V128
tp107
a(V2017-04-17
V162
tp108
a(V2017-04-18
V66
tp109
a(V2017-04-19
V89
tp110
a(V2017-04-20
V70
tp111
a(V2017-04-21
V57
tp112
a(V2017-04-22
V87
tp113
a(V2017-04-23
V63
tp114
a(V2017-04-24
V67
tp115
a(V2017-04-25
V41
tp116
a(V2017-04-26
V52
tp117
a(V2017-04-27
V55
tp118
a(V2017-04-28
V63
tp119
a(V2017-04-29
V79
tp120
a(V2017-04-30
V108
tp121
a(V2017-05-01
V81
tp122
a(V2017-05-02
V129
tp123
a(V2017-05-03
V93
tp124
a(V2017-05-04
V500
tp125
a(V2017-05-05
V411
tp126
a(V2017-05-06
V74
tp127
a(V2017-05-07
V82
tp128
a(V2017-05-08
V102
tp129
a(V2017-05-09
V100
tp130
a(V2017-05-10
V79
tp131
a(V2017-05-11
V92
tp132
a(V2017-05-12
V109
tp133
a(V2017-05-13
V63
tp134
a(V2017-05-14
V68
tp135
a(V2017-05-15
V80
tp136
a(V2017-05-16
V127
tp137
a(V2017-05-17
V184
tp138
a(V2017-05-18
V201
tp139
a(V2017-05-19
V185
tp140
a(V2017-05-20
V169
tp141
a(V2017-05-21
V113
tp142
a(V2017-05-22
V54
tp143
a(V2017-05-23
V70
tp144
a(V2017-05-24
V82
tp145
a(V2017-05-25
V100
tp146
a(V2017-05-26
V149
tp147
a(V2017-05-27
V191
tp148
a(V2017-05-28
V187
tp149
a(V2017-05-29
V70
tp150
a(V2017-05-30
V99
tp151
a(V2017-05-31
V140
tp152
a(V2017-06-01
V120
tp153
a(V2017-06-02
V56
tp154
a(V2017-06-03
V81
tp155
a(V2017-06-04
V138
tp156
a(V2017-06-05
V146
tp157
a(V2017-06-06
V53
tp158
a(V2017-06-07
V93
tp159
a(V2017-06-08
V72
tp160
a(V2017-06-09
V145
tp161
a(V2017-06-10
V80
tp162
a(V2017-06-11
V120
tp163
a(V2017-06-12
V87
tp164
a(V2017-06-13
V90
tp165
a(V2017-06-14
V120
tp166
a(V2017-06-15
V156
tp167
a(V2017-06-16
V158
tp168
a(V2017-06-17
V199
tp169
a(V2017-06-18
V187
tp170
a(V2017-06-19
V151
tp171
a(V2017-06-20
V155
tp172
a(V2017-06-21
V156
tp173
a(V2017-06-22
V52
tp174
a(V2017-06-23
V51
tp175
a(V2017-06-24
V65
tp176
a(V2017-06-25
V103
tp177
a(V2017-06-26
V131
tp178
a(V2017-06-27
V198
tp179
a(V2017-06-28
V183
tp180
a(V2017-06-29
V138
tp181
a(V2017-06-30
V194
tp182
a(V2017-07-01
V191
tp183
a(V2017-07-02
V181
tp184
a(V2017-07-03
V120
tp185
a(V2017-07-04
V94
tp186
a(V2017-07-05
V134
tp187
a(V2017-07-06
V94
tp188
a(V2017-07-07
V113
tp189
a(V2017-07-08
V156
tp190
a(V2017-07-09
V169
tp191
a(V2017-07-10
V132
tp192
a(V2017-07-11
V205
tp193
a(V2017-07-12
V186
tp194
a(V2017-07-13
V130
tp195
a(V2017-07-14
V125
tp196
a(V2017-07-15
V94
tp197
a(V2017-07-16
V169
tp198
a(V2017-07-17
V118
tp199
a(V2017-07-18
V87
tp200
a(V2017-07-19
V107
tp201
a(V2017-07-20
V128
tp202
a(V2017-07-21
V50
tp203
a(V2017-07-22
V40
tp204
a(V2017-07-23
V62
tp205
a(V2017-07-24
V57
tp206
a(V2017-07-25
V80
tp207
a(V2017-07-26
V42
tp208
a(V2017-07-27
V62
tp209
a(V2017-07-28
V69
tp210
a(V2017-07-29
V90
tp211
a(V2017-07-30
V125
tp212
a(V2017-07-31
V194
tp213
a(V2017-08-01
V89
tp214
a(V2017-08-02
V55
tp215
a(V2017-08-03
V90
tp216
a(V2017-08-04
V107
tp217
a(V2017-08-05
V131
tp218
a(V2017-08-06
V78
tp219
a(V2017-08-07
V88
tp220
a(V2017-08-08
V155
tp221
a(V2017-08-09
V98
tp222
a(V2017-08-10
V123
tp223
a(V2017-08-11
V117
tp224
a(V2017-08-12
V48
tp225
a(V2017-08-13
V57
tp226
a(V2017-08-14
V91
tp227
a(V2017-08-15
V103
tp228
a(V2017-08-16
V80
tp229
a(V2017-08-17
V90
tp230
a(V2017-08-18
V73
tp231
a(V2017-08-19
V70
tp232
a(V2017-08-20
V95
tp233
a(V2017-08-21
V130
tp234
a(V2017-08-22
V97
tp235
a(V2017-08-23
V55
tp236
a(V2017-08-24
V50
tp237
a(V2017-08-25
V49
tp238
a(V2017-08-26
V60
tp239
a(V2017-08-27
V38
tp240
a(V2017-08-28
V35
tp241
a(V2017-08-29
V51
tp242
a(V2017-08-30
V88
tp243
a(V2017-08-31
V110
tp244
a(V2017-09-01
V185
tp245
a(V2017-09-02
V135
tp246
a(V2017-09-03
V97
tp247
a(V2017-09-04
V115
tp248
a(V2017-09-05
V56
tp249
a(V2017-09-06
V65
tp250
a(V2017-09-07
V140
tp251
a(V2017-09-08
V180
tp252
a(V2017-09-09
V133
tp253
a(V2017-09-10
V122
tp254
a(V2017-09-11
V50
tp255
a(V2017-09-12
V66
tp256
a(V2017-09-13
V120
tp257
a(V2017-09-14
V112
tp258
a(V2017-09-15
V80
tp259
a(V2017-09-16
V120
tp260
a(V2017-09-17
V45
tp261
a(V2017-09-18
V75
tp262
a(V2017-09-19
V58
tp263
a(V2017-09-20
V62
tp264
a(V2017-09-21
V99
tp265
a(V2017-09-22
V72
tp266
a(V2017-09-23
V121
tp267
a(V2017-09-24
V104
tp268
a(V2017-09-25
V103
tp269
a(V2017-09-26
V65
tp270
a(V2017-09-27
V62
tp271
a(V2017-09-28
V39
tp272
a(V2017-09-29
V92
tp273
a(V2017-09-30
V147
tp274
a(V2017-10-01
V92
tp275
a(V2017-10-02
V45
tp276
a(V2017-10-03
V44
tp277
a(V2017-10-04
V56
tp278
a(V2017-10-05
V75
tp279
a(V2017-10-06
V90
tp280
a(V2017-10-07
V149
tp281
a(V2017-10-08
V163
tp282
a(V2017-10-09
V40
tp283
a(V2017-10-10
V25
tp284
a(V2017-10-11
V37
tp285
a(V2017-10-12
V50
tp286
a(V2017-10-13
V63
tp287
a(V2017-10-14
V54
tp288
a(V2017-10-15
V69
tp289
a(V2017-10-16
V57
tp290
a(V2017-10-17
V93
tp291
a(V2017-10-18
V90
tp292
a(V2017-10-19
V77
tp293
a(V2017-10-20
V129
tp294
a(V2017-10-21
V97
tp295
a(V2017-10-22
V57
tp296
a(V2017-10-23
V52
tp297
a(V2017-10-24
V94
tp298
a(V2017-10-25
V144
tp299
a(V2017-10-26
V202
tp300
a(V2017-10-27
V220
tp301
a(V2017-10-28
V59
tp302
a(V2017-10-29
V35
tp303
a(V2017-10-30
V59
tp304
a(V2017-10-31
V92
tp305
a(V2017-11-01
V99
tp306
a(V2017-11-02
V72
tp307
a(V2017-11-03
V39
tp308
a(V2017-11-04
V69
tp309
a(V2017-11-05
V133
tp310
a(V2017-11-06
V202
tp311
a(V2017-11-07
V107
tp312
a(V2017-11-08
V65
tp313
a(V2017-11-09
V79
tp314
a(V2017-11-10
V37
tp315
a(V2017-11-11
V47
tp316
a(V2017-11-12
V80
tp317
a(V2017-11-13
V60
tp318
a(V2017-11-14
V34
tp319
a(V2017-11-15
V48
tp320
a(V2017-11-16
V92
tp321
a(V2017-11-17
V54
tp322
a(V2017-11-18
V57
tp323
a(V2017-11-19
V120
tp324
a(V2017-11-20
V138
tp325
a(V2017-11-21
V152
tp326
a(V2017-11-22
V33
tp327
a(V2017-11-23
V30
tp328
a(V2017-11-24
V51
tp329
a(V2017-11-25
V74
tp330
a(V2017-11-26
V33
tp331
a(V2017-11-27
V94
tp332
a(V2017-11-28
V63
tp333
a(V2017-11-29
V45
tp334
a(V2017-11-30
V55
tp335
a(V2017-12-01
V98
tp336
a(V2017-12-02
V202
tp337
a(V2017-12-03
V67
tp338
a(V2017-12-04
V30
tp339
a(V2017-12-05
V63
tp340
a(V2017-12-06
V54
tp341
a(V2017-12-07
V27
tp342
a(V2017-12-08
V57
tp343
a(V2017-12-09
V74
tp344
a(V2017-12-10
V46
tp345
a(V2017-12-11
V33
tp346
a(V2017-12-12
V42
tp347
a(V2017-12-13
V65
tp348
a(V2017-12-14
V97
tp349
a(V2017-12-15
V51
tp350
a(V2017-12-16
V36
tp351
a(V2017-12-17
V68
tp352
a(V2017-12-18
V47
tp353
a(V2017-12-19
V65
tp354
a(V2017-12-20
V53
tp355
a(V2017-12-21
V98
tp356
a(V2017-12-22
V72
tp357
a(V2017-12-23
V79
tp358
a(V2017-12-24
V49
tp359
a(V2017-12-25
V62
tp360
a(V2017-12-26
V59
tp361
a(V2017-12-27
V99
tp362
a(V2017-12-28
V143
tp363
a(V2017-12-29
V225
tp364
a(V2017-12-30
V145
tp365
a(V2017-12-31
V64
tp366
a.