(lp1
(V2016-01-01
V226
tp2
a(V2016-01-02
V316
tp3
a(V2016-01-03
V297
tp4
a(V2016-01-04
V53
tp5
a(V2016-01-05
V63
tp6
a(V2016-01-06
V44
tp7
a(V2016-01-07
V35
tp8
a(V2016-01-08
V54
tp9
a(V2016-01-09
V102
tp10
a(V2016-01-10
V69
tp11
a(V2016-01-11
V32
tp12
a(V2016-01-12
V38
tp13
a(V2016-01-13
V62
tp14
a(V2016-01-14
V98
tp15
a(V2016-01-15
V132
tp16
a(V2016-01-16
V162
tp17
a(V2016-01-17
V53
tp18
a(V2016-01-18
V45
tp19
a(V2016-01-19
V84
tp20
a(V2016-01-20
V153
tp21
a(V2016-01-21
V173
tp22
a(V2016-01-22
V33
tp23
a(V2016-01-23
V47
tp24
a(V2016-01-24
V47
tp25
a(V2016-01-25
V54
tp26
a(V2016-01-26
V56
tp27
a(V2016-01-27
V129
tp28
a(V2016-01-28
V159
tp29
a(V2016-01-29
V84
tp30
a(V2016-01-30
V69
tp31
a(V2016-01-31
V38
tp32
a(V2016-02-01
V40
tp33
a(V2016-02-02
V62
tp34
a(V2016-02-03
V69
tp35
a(V2016-02-04
V36
tp36
a(V2016-02-05
V38
tp37
a(V2016-02-06
V45
tp38
a(V2016-02-07
V69
tp39
a(V2016-02-08
V238
tp40
a(V2016-02-09
V60
tp41
a(V2016-02-10
V128
tp42
a(V2016-02-11
V202
tp43
a(V2016-02-12
V192
tp44
a(V2016-02-13
V34
tp45
a(V2016-02-14
V36
tp46
a(V2016-02-15
V46
tp47
a(V2016-02-16
V38
tp48
a(V2016-02-17
V64
tp49
a(V2016-02-18
V42
tp50
a(V2016-02-19
V40
tp51
a(V2016-02-20
V40
tp52
a(V2016-02-21
V108
tp53
a(V2016-02-22
V92
tp54
a(V2016-02-23
V41
tp55
a(V2016-02-24
V49
tp56
a(V2016-02-25
V45
tp57
a(V2016-02-26
V55
tp58
a(V2016-02-27
V45
tp59
a(V2016-02-28
V48
tp60
a(V2016-02-29
V53
tp61
a(V2016-03-01
V158
tp62
a(V2016-03-02
V212
tp63
a(V2016-03-03
V333
tp64
a(V2016-03-04
V365
tp65
a(V2016-03-05
V170
tp66
a(V2016-03-06
V116
tp67
a(V2016-03-07
V70
tp68
a(V2016-03-08
V39
tp69
a(V2016-03-09
V37
tp70
a(V2016-03-10
V49
tp71
a(V2016-03-11
V51
tp72
a(V2016-03-12
V144
tp73
a(V2016-03-13
V48
tp74
a(V2016-03-14
V103
tp75
a(V2016-03-15
V190
tp76
a(V2016-03-16
V300
tp77
a(V2016-03-17
V338
tp78
a(V2016-03-18
V227
tp79
a(V2016-03-19
V88
tp80
a(V2016-03-20
V89
tp81
a(V2016-03-21
V163
tp82
a(V2016-03-22
V138
tp83
a(V2016-03-23
V43
tp84
a(V2016-03-24
V44
tp85
a(V2016-03-25
V48
tp86
a(V2016-03-26
V45
tp87
a(V2016-03-27
V47
tp88
a(V2016-03-28
V123
tp89
a(V2016-03-29
V62
tp90
a(V2016-03-30
V63
tp91
a(V2016-03-31
V199
tp92
a(V2016-04-01
V93
tp93
a(V2016-04-02
V43
tp94
a(V2016-04-03
V52
tp95
a(V2016-04-04
V103
tp96
a(V2016-04-05
V148
tp97
a(V2016-04-06
V192
tp98
a(V2016-04-07
V108
tp99
a(V2016-04-08
V71
tp100
a(V2016-04-09
V148
tp101
a(V2016-04-10
V121
tp102
a(V2016-04-11
V77
tp103
a(V2016-04-12
V105
tp104
a(V2016-04-13
V158
tp105
a(V2016-04-14
V76
tp106
a(V2016-04-15
V80
tp107
a(V2016-04-17
V46
tp108
a(V2016-04-18
V50
tp109
a(V2016-04-19
V98
tp110
a(V2016-04-20
V92
tp111
a(V2016-04-21
V127
tp112
a(V2016-04-22
V74
tp113
a(V2016-04-23
V54
tp114
a(V2016-04-24
V113
tp115
a(V2016-04-25
V119
tp116
a(V2016-04-26
V95
tp117
a(V2016-04-27
V120
tp118
a(V2016-04-28
V122
tp119
a(V2016-04-29
V168
tp120
a(V2016-04-30
V209
tp121
a(V2016-05-01
V234
tp122
a(V2016-05-02
V82
tp123
a(V2016-05-03
V60
tp124
a(V2016-05-04
V68
tp125
a(V2016-05-05
V102
tp126
a(V2016-05-06
V116
tp127
a(V2016-05-07
V74
tp128
a(V2016-05-08
V97
tp129
a(V2016-05-09
V64
tp130
a(V2016-05-10
V100
tp131
a(V2016-05-11
V200
tp132
a(V2016-05-12
V62
tp133
a(V2016-05-13
V73
tp134
a(V2016-05-14
V58
tp135
a(V2016-05-15
V49
tp136
a(V2016-05-16
V75
tp137
a(V2016-05-17
V162
tp138
a(V2016-05-18
V134
tp139
a(V2016-05-19
V184
tp140
a(V2016-05-20
V171
tp141
a(V2016-05-21
V150
tp142
a(V2016-05-22
V142
tp143
a(V2016-05-23
V95
tp144
a(V2016-05-24
V75
tp145
a(V2016-05-25
V66
tp146
a(V2016-05-26
V63
tp147
a(V2016-05-27
V122
tp148
a(V2016-05-28
V138
tp149
a(V2016-05-29
V95
tp150
a(V2016-05-30
V204
tp151
a(V2016-05-31
V138
tp152
a(V2016-06-01
V108
tp153
a(V2016-06-02
V156
tp154
a(V2016-06-03
V160
tp155
a(V2016-06-04
V179
tp156
a(V2016-06-05
V161
tp157
a(V2016-06-06
V189
tp158
a(V2016-06-07
V127
tp159
a(V2016-06-08
V170
tp160
a(V2016-06-09
V153
tp161
a(V2016-06-10
V123
tp162
a(V2016-06-11
V64
tp163
a(V2016-06-12
V146
tp164
a(V2016-06-13
V96
tp165
a(V2016-06-14
V50
tp166
a(V2016-06-15
V92
tp167
a(V2016-06-16
V90
tp168
a(V2016-06-17
V59
tp169
a(V2016-06-18
V145
tp170
a(V2016-06-19
V149
tp171
a(V2016-06-20
V166
tp172
a(V2016-06-21
V175
tp173
a(V2016-06-22
V150
tp174
a(V2016-06-23
V117
tp175
a(V2016-06-24
V70
tp176
a(V2016-06-25
V59
tp177
a(V2016-06-26
V140
tp178
a(V2016-06-27
V98
tp179
a(V2016-06-28
V98
tp180
a(V2016-06-29
V145
tp181
a(V2016-06-30
V130
tp182
a(V2016-07-01
V82
tp183
a(V2016-07-02
V119
tp184
a(V2016-07-03
V137
tp185
a(V2016-07-04
V173
tp186
a(V2016-07-05
V161
tp187
a(V2016-07-06
V155
tp188
a(V2016-07-07
V177
tp189
a(V2016-07-08
V146
tp190
a(V2016-07-09
V143
tp191
a(V2016-07-10
V137
tp192
a(V2016-07-11
V129
tp193
a(V2016-07-12
V52
tp194
a(V2016-07-13
V112
tp195
a(V2016-07-14
V80
tp196
a(V2016-07-15
V52
tp197
a(V2016-07-16
V54
tp198
a(V2016-07-17
V154
tp199
a(V2016-07-18
V139
tp200
a(V2016-07-19
V133
tp201
a(V2016-07-20
V48
tp202
a(V2016-07-21
V40
tp203
a(V2016-07-22
V100
tp204
a(V2016-07-23
V158
tp205
a(V2016-07-24
V131
tp206
a(V2016-07-25
V57
tp207
a(V2016-07-26
V93
tp208
a(V2016-07-27
V168
tp209
a(V2016-07-28
V128
tp210
a(V2016-07-29
V158
tp211
a(V2016-07-30
V170
tp212
a(V2016-07-31
V77
tp213
a(V2016-08-01
V109
tp214
a(V2016-08-02
V96
tp215
a(V2016-08-03
V153
tp216
a(V2016-08-04
V155
tp217
a(V2016-08-05
V103
tp218
a(V2016-08-06
V129
tp219
a(V2016-08-07
V69
tp220
a(V2016-08-08
V95
tp221
a(V2016-08-09
V135
tp222
a(V2016-08-10
V112
tp223
a(V2016-08-11
V114
tp224
a(V2016-08-12
V79
tp225
a(V2016-08-13
V50
tp226
a(V2016-08-14
V104
tp227
a(V2016-08-15
V45
tp228
a(V2016-08-16
V96
tp229
a(V2016-08-17
V87
tp230
a(V2016-08-18
V99
tp231
a(V2016-08-19
V67
tp232
a(V2016-08-20
V134
tp233
a(V2016-08-21
V179
tp234
a(V2016-08-22
V103
tp235
a(V2016-08-23
V95
tp236
a(V2016-08-24
V109
tp237
a(V2016-08-25
V34
tp238
a(V2016-08-26
V45
tp239
a(V2016-08-27
V48
tp240
a(V2016-08-28
V46
tp241
a(V2016-08-29
V66
tp242
a(V2016-08-30
V109
tp243
a(V2016-08-31
V50
tp244
a(V2016-09-01
V39
tp245
a(V2016-09-02
V39
tp246
a(V2016-09-03
V86
tp247
a(V2016-09-04
V106
tp248
a(V2016-09-05
V54
tp249
a(V2016-09-06
V0
tp250
a(V2016-09-07
V87
tp251
a(V2016-09-08
V55
tp252
a(V2016-09-09
V53
tp253
a(V2016-09-10
V54
tp254
a(V2016-09-11
V65
tp255
a(V2016-09-12
V72
tp256
a(V2016-09-13
V118
tp257
a(V2016-09-14
V130
tp258
a(V2016-09-15
V111
tp259
a(V2016-09-16
V172
tp260
a(V2016-09-17
V57
tp261
a(V2016-09-18
V42
tp262
a(V2016-09-19
V44
tp263
a(V2016-09-20
V59
tp264
a(V2016-09-21
V97
tp265
a(V2016-09-22
V137
tp266
a(V2016-09-23
V168
tp267
a(V2016-09-24
V156
tp268
a(V2016-09-25
V211
tp269
a(V2016-09-26
V80
tp270
a(V2016-09-27
V33
tp271
a(V2016-09-28
V50
tp272
a(V2016-09-29
V75
tp273
a(V2016-09-30
V135
tp274
a(V2016-10-01
V220
tp275
a(V2016-10-02
V233
tp276
a(V2016-10-03
V159
tp277
a(V2016-10-04
V47
tp278
a(V2016-10-05
V83
tp279
a(V2016-10-06
V95
tp280
a(V2016-10-07
V55
tp281
a(V2016-10-08
V33
tp282
a(V2016-10-09
V67
tp283
a(V2016-10-10
V122
tp284
a(V2016-10-11
V149
tp285
a(V2016-10-12
V107
tp286
a(V2016-10-13
V206
tp287
a(V2016-10-14
V292
tp288
a(V2016-10-15
V236
tp289
a(V2016-10-16
V153
tp290
a(V2016-10-17
V85
tp291
a(V2016-10-18
V160
tp292
a(V2016-10-19
V278
tp293
a(V2016-10-20
V115
tp294
a(V2016-10-21
V60
tp295
a(V2016-10-22
V38
tp296
a(V2016-10-23
V55
tp297
a(V2016-10-24
V87
tp298
a(V2016-10-25
V133
tp299
a(V2016-10-26
V69
tp300
a(V2016-10-27
V63
tp301
a(V2016-10-28
V38
tp302
a(V2016-10-29
V59
tp303
a(V2016-10-30
V66
tp304
a(V2016-10-31
V29
tp305
a(V2016-11-01
V69
tp306
a(V2016-11-02
V140
tp307
a(V2016-11-03
V243
tp308
a(V2016-11-04
V292
tp309
a(V2016-11-05
V230
tp310
a(V2016-11-06
V95
tp311
a(V2016-11-07
V53
tp312
a(V2016-11-08
V67
tp313
a(V2016-11-09
V208
tp314
a(V2016-11-10
V199
tp315
a(V2016-11-11
V110
tp316
a(V2016-11-12
V100
tp317
a(V2016-11-13
V132
tp318
a(V2016-11-14
V62
tp319
a(V2016-11-15
V79
tp320
a(V2016-11-16
V132
tp321
a(V2016-11-17
V149
tp322
a(V2016-11-18
V242
tp323
a(V2016-11-19
V165
tp324
a(V2016-11-20
V70
tp325
a(V2016-11-21
V30
tp326
a(V2016-11-22
V28
tp327
a(V2016-11-23
V44
tp328
a(V2016-11-24
V102
tp329
a(V2016-11-25
V214
tp330
a(V2016-11-26
V315
tp331
a(V2016-11-27
V68
tp332
a(V2016-11-28
V97
tp333
a(V2016-11-29
V129
tp334
a(V2016-11-30
V117
tp335
a(V2016-12-01
V60
tp336
a(V2016-12-02
V129
tp337
a(V2016-12-03
V259
tp338
a(V2016-12-04
V302
tp339
a(V2016-12-05
V60
tp340
a(V2016-12-06
V112
tp341
a(V2016-12-07
V170
tp342
a(V2016-12-08
V114
tp343
a(V2016-12-09
V54
tp344
a(V2016-12-10
V80
tp345
a(V2016-12-11
V219
tp346
a(V2016-12-12
V271
tp347
a(V2016-12-13
V68
tp348
a(V2016-12-14
V58
tp349
a(V2016-12-15
V54
tp350
a(V2016-12-16
V149
tp351
a(V2016-12-17
V246
tp352
a(V2016-12-18
V271
tp353
a(V2016-12-19
V273
tp354
a(V2016-12-20
V418
tp355
a(V2016-12-21
V431
tp356
a(V2016-12-22
V79
tp357
a(V2016-12-23
V62
tp358
a(V2016-12-24
V160
tp359
a(V2016-12-25
V195
tp360
a(V2016-12-26
V59
tp361
a(V2016-12-27
V59
tp362
a(V2016-12-28
V87
tp363
a(V2016-12-29
V88
tp364
a(V2016-12-30
V262
tp365
a(V2016-12-31
V351
tp366
a.